target datalayout = "e-m:e-p270:32:32-p271:32:32-p272:64:64-i64:64-i128:128-f80:128-n8:16:32:64-S128"
target triple = "x86_64-pc-linux-gnu"

%struct.UConverterSharedData = type { i32, i32, ptr, ptr, i8, i8, ptr, i32, %struct.UConverterMBCSTable }
%struct.UConverterMBCSTable = type { i8, i8, i8, i32, ptr, ptr, ptr, ptr, ptr, ptr, [64 x i16], ptr, ptr, i32, i8, i8, i8, i16, i32, ptr, ptr, ptr, ptr }
%struct.UConverterLoadArgs = type { i32, i32, i8, i8, i16, i32, ptr, ptr, ptr }
%struct.UConverterStaticData = type { i32, [60 x i8], i32, i8, i8, i8, i8, [4 x i8], i8, i8, i8, i8, i8, [19 x i8] }
%struct.UConverterImpl = type { i32, ptr, ptr, ptr, ptr, ptr, ptr, ptr, ptr, ptr, ptr, ptr, ptr, ptr, ptr, ptr, ptr, ptr }

@_ZL9DATA_TYPE = internal constant [4 x i8] c"cnv\00", align 1

; Function Attrs: mustprogress uwtable
define internal noundef ptr @_ZL24ucnv_data_unFlattenCloneP18UConverterLoadArgsP11UDataMemoryP10UErrorCode(ptr noundef %0, ptr noundef %1, ptr noundef %2) #0 {
  %4 = alloca ptr, align 8
  %5 = alloca ptr, align 8
  %6 = alloca ptr, align 8
  %7 = alloca ptr, align 8
  %8 = alloca ptr, align 8
  %9 = alloca ptr, align 8
  %10 = alloca ptr, align 8
  %11 = alloca i32, align 4
  %12 = alloca i32, align 4
  store ptr %0, ptr %5, align 8, !tbaa !8
  store ptr %1, ptr %6, align 8, !tbaa !29
  store ptr %2, ptr %7, align 8, !tbaa !8
  call void @llvm.lifetime.start.p0(i64 8, ptr %8) #12
  %13 = load ptr, ptr %6, align 8, !tbaa !29
  %14 = call ptr @udata_getMemory_77(ptr noundef %13)
  store ptr %14, ptr %8, align 8, !tbaa !31
  call void @llvm.lifetime.start.p0(i64 8, ptr %9) #12
  %15 = load ptr, ptr %8, align 8, !tbaa !31
  store ptr %15, ptr %9, align 8, !tbaa !89
  call void @llvm.lifetime.start.p0(i64 8, ptr %10) #12
  call void @llvm.lifetime.start.p0(i64 4, ptr %11) #12
  %16 = load ptr, ptr %9, align 8, !tbaa !89
  %17 = getelementptr inbounds nuw %struct.UConverterStaticData, ptr %16, i32 0, i32 4
  %18 = load i8, ptr %17, align 1, !tbaa !95
  %19 = sext i8 %18 to i32
  store i32 %19, ptr %11, align 4, !tbaa !78
  %20 = load ptr, ptr %7, align 8, !tbaa !8
  %21 = load i32, ptr %20, align 4, !tbaa !9
  %22 = call noundef signext i8 @_ZL9U_FAILURE10UErrorCode(i32 noundef %21)
  %23 = icmp ne i8 %22, 0
  br i1 %23, label %24, label %25

24:                                               ; preds = %3
  store ptr null, ptr %4, align 8
  store i32 1, ptr %12, align 4
  br label %113

25:                                               ; preds = %3
  %26 = load i32, ptr %11, align 4, !tbaa !78
  %27 = trunc i32 %26 to i16
  %28 = zext i16 %27 to i32
  %29 = icmp sge i32 %28, 34
  br i1 %29, label %58, label %30

30:                                               ; preds = %25
  %31 = load i32, ptr %11, align 4, !tbaa !78
  %32 = sext i32 %31 to i64
  %33 = getelementptr inbounds [34 x ptr], ptr @_ZL13converterData, i64 0, i64 %32
  %34 = load ptr, ptr %33, align 8, !tbaa !18
  %35 = icmp eq ptr %34, null
  br i1 %35, label %58, label %36

36:                                               ; preds = %30
  %37 = load i32, ptr %11, align 4, !tbaa !78
  %38 = sext i32 %37 to i64
  %39 = getelementptr inbounds [34 x ptr], ptr @_ZL13converterData, i64 0, i64 %38
  %40 = load ptr, ptr %39, align 8, !tbaa !18
  %41 = getelementptr inbounds nuw %struct.UConverterSharedData, ptr %40, i32 0, i32 5
  %42 = load i8, ptr %41, align 1, !tbaa !39
  %43 = icmp ne i8 %42, 0
  br i1 %43, label %44, label %58

44:                                               ; preds = %36
  %45 = load i32, ptr %11, align 4, !tbaa !78
  %46 = sext i32 %45 to i64
  %47 = getelementptr inbounds [34 x ptr], ptr @_ZL13converterData, i64 0, i64 %46
  %48 = load ptr, ptr %47, align 8, !tbaa !18
  %49 = getelementptr inbounds nuw %struct.UConverterSharedData, ptr %48, i32 0, i32 1
  %50 = load i32, ptr %49, align 4, !tbaa !21
  %51 = icmp ne i32 %50, 1
  br i1 %51, label %58, label %52

52:                                               ; preds = %44
  %53 = load ptr, ptr %9, align 8, !tbaa !89
  %54 = getelementptr inbounds nuw %struct.UConverterStaticData, ptr %53, i32 0, i32 0
  %55 = load i32, ptr %54, align 4, !tbaa !92
  %56 = zext i32 %55 to i64
  %57 = icmp ne i64 %56, 100
  br i1 %57, label %58, label %60

58:                                               ; preds = %52, %44, %36, %30, %25
  %59 = load ptr, ptr %7, align 8, !tbaa !8
  store i32 13, ptr %59, align 4, !tbaa !9
  store ptr null, ptr %4, align 8
  store i32 1, ptr %12, align 4
  br label %113

60:                                               ; preds = %52
  %61 = call noalias ptr @uprv_malloc_77(i64 noundef 296) #14
  store ptr %61, ptr %10, align 8, !tbaa !18
  %62 = load ptr, ptr %10, align 8, !tbaa !18
  %63 = icmp eq ptr %62, null
  br i1 %63, label %64, label %66

64:                                               ; preds = %60
  %65 = load ptr, ptr %7, align 8, !tbaa !8
  store i32 7, ptr %65, align 4, !tbaa !9
  store ptr null, ptr %4, align 8
  store i32 1, ptr %12, align 4
  br label %113

66:                                               ; preds = %60
  br label %67

67:                                               ; preds = %66
  %68 = load ptr, ptr %10, align 8, !tbaa !18
  %69 = load i32, ptr %11, align 4, !tbaa !78
  %70 = sext i32 %69 to i64
  %71 = getelementptr inbounds [34 x ptr], ptr @_ZL13converterData, i64 0, i64 %70
  %72 = load ptr, ptr %71, align 8, !tbaa !18
  call void @llvm.memcpy.p0.p0.i64(ptr align 8 %68, ptr align 8 %72, i64 296, i1 false)
  br label %73

73:                                               ; preds = %67
  br label %74

74:                                               ; preds = %73
  %75 = load ptr, ptr %9, align 8, !tbaa !89
  %76 = load ptr, ptr %10, align 8, !tbaa !18
  %77 = getelementptr inbounds nuw %struct.UConverterSharedData, ptr %76, i32 0, i32 3
  store ptr %75, ptr %77, align 8, !tbaa !33
  %78 = load ptr, ptr %10, align 8, !tbaa !18
  %79 = getelementptr inbounds nuw %struct.UConverterSharedData, ptr %78, i32 0, i32 4
  store i8 0, ptr %79, align 8, !tbaa !32
  %80 = load ptr, ptr %6, align 8, !tbaa !29
  %81 = load ptr, ptr %10, align 8, !tbaa !18
  %82 = getelementptr inbounds nuw %struct.UConverterSharedData, ptr %81, i32 0, i32 2
  store ptr %80, ptr %82, align 8, !tbaa !38
  %83 = load ptr, ptr %10, align 8, !tbaa !18
  %84 = getelementptr inbounds nuw %struct.UConverterSharedData, ptr %83, i32 0, i32 6
  %85 = load ptr, ptr %84, align 8, !tbaa !34
  %86 = getelementptr inbounds nuw %struct.UConverterImpl, ptr %85, i32 0, i32 1
  %87 = load ptr, ptr %86, align 8, !tbaa !121
  %88 = icmp ne ptr %87, null
  br i1 %88, label %89, label %111

89:                                               ; preds = %74
  %90 = load ptr, ptr %10, align 8, !tbaa !18
  %91 = getelementptr inbounds nuw %struct.UConverterSharedData, ptr %90, i32 0, i32 6
  %92 = load ptr, ptr %91, align 8, !tbaa !34
  %93 = getelementptr inbounds nuw %struct.UConverterImpl, ptr %92, i32 0, i32 1
  %94 = load ptr, ptr %93, align 8, !tbaa !121
  %95 = load ptr, ptr %10, align 8, !tbaa !18
  %96 = load ptr, ptr %5, align 8, !tbaa !8
  %97 = load ptr, ptr %8, align 8, !tbaa !31
  %98 = load ptr, ptr %9, align 8, !tbaa !89
  %99 = getelementptr inbounds nuw %struct.UConverterStaticData, ptr %98, i32 0, i32 0
  %100 = load i32, ptr %99, align 4, !tbaa !92
  %101 = zext i32 %100 to i64
  %102 = getelementptr inbounds nuw i8, ptr %97, i64 %101
  %103 = load ptr, ptr %7, align 8, !tbaa !8
  call void %94(ptr noundef %95, ptr noundef %96, ptr noundef %102, ptr noundef %103)
  %104 = load ptr, ptr %7, align 8, !tbaa !8
  %105 = load i32, ptr %104, align 4, !tbaa !9
  %106 = call noundef signext i8 @_ZL9U_FAILURE10UErrorCode(i32 noundef %105)
  %107 = icmp ne i8 %106, 0
  br i1 %107, label %108, label %110

108:                                              ; preds = %89
  %109 = load ptr, ptr %10, align 8, !tbaa !18
  call void @uprv_free_77(ptr noundef %109)
  store ptr null, ptr %4, align 8
  store i32 1, ptr %12, align 4
  br label %113

110:                                              ; preds = %89
  br label %111

111:                                              ; preds = %110, %74
  %112 = load ptr, ptr %10, align 8, !tbaa !18
  store ptr %112, ptr %4, align 8
  store i32 1, ptr %12, align 4
  br label %113

113:                                              ; preds = %111, %108, %64, %58, %24
  call void @llvm.lifetime.end.p0(i64 4, ptr %11) #12
  call void @llvm.lifetime.end.p0(i64 8, ptr %10) #12
  call void @llvm.lifetime.end.p0(i64 8, ptr %9) #12
  call void @llvm.lifetime.end.p0(i64 8, ptr %8) #12
  %114 = load ptr, ptr %4, align 8
  ret ptr %114
}

; Function Attrs: inlinehint mustprogress nounwind uwtable
define internal noundef signext i8 @_ZL9U_FAILURE10UErrorCode(i32 noundef %0) #3 {
  %2 = alloca i32, align 4
  store i32 %0, ptr %2, align 4, !tbaa !9
  %3 = load i32, ptr %2, align 4, !tbaa !9
  %4 = icmp sgt i32 %3, 0
  %5 = zext i1 %4 to i8
  ret i8 %5
}

; Function Attrs: mustprogress uwtable
define internal noundef ptr @_ZL23createConverterFromFileP18UConverterLoadArgsP10UErrorCode(ptr noundef %0, ptr noundef %1) #0 {
  %3 = alloca ptr, align 8
  %4 = alloca ptr, align 8
  %5 = alloca ptr, align 8
  %6 = alloca ptr, align 8
  %7 = alloca ptr, align 8
  %8 = alloca i32, align 4
  store ptr %0, ptr %4, align 8, !tbaa !8
  store ptr %1, ptr %5, align 8, !tbaa !8
  call void @llvm.lifetime.start.p0(i64 8, ptr %6) #12
  call void @llvm.lifetime.start.p0(i64 8, ptr %7) #12
  %9 = load ptr, ptr %5, align 8, !tbaa !8
  %10 = load i32, ptr %9, align 4, !tbaa !9
  %11 = call noundef signext i8 @_ZL9U_FAILURE10UErrorCode(i32 noundef %10)
  %12 = icmp ne i8 %11, 0
  br i1 %12, label %13, label %14

13:                                               ; preds = %2
  store ptr null, ptr %3, align 8
  store i32 1, ptr %8, align 4
  br label %41

14:                                               ; preds = %2
  %15 = load ptr, ptr %4, align 8, !tbaa !8
  %16 = getelementptr inbounds nuw %struct.UConverterLoadArgs, ptr %15, i32 0, i32 6
  %17 = load ptr, ptr %16, align 8, !tbaa !11
  %18 = load ptr, ptr %4, align 8, !tbaa !8
  %19 = getelementptr inbounds nuw %struct.UConverterLoadArgs, ptr %18, i32 0, i32 7
  %20 = load ptr, ptr %19, align 8, !tbaa !17
  %21 = load ptr, ptr %5, align 8, !tbaa !8
  %22 = call ptr @udata_openChoice_77(ptr noundef %17, ptr noundef @_ZL9DATA_TYPE, ptr noundef %20, ptr noundef @_ZL15isCnvAcceptablePvPKcS1_PK9UDataInfo, ptr noundef null, ptr noundef %21)
  store ptr %22, ptr %6, align 8, !tbaa !29
  %23 = load ptr, ptr %5, align 8, !tbaa !8
  %24 = load i32, ptr %23, align 4, !tbaa !9
  %25 = call noundef signext i8 @_ZL9U_FAILURE10UErrorCode(i32 noundef %24)
  %26 = icmp ne i8 %25, 0
  br i1 %26, label %27, label %28

27:                                               ; preds = %14
  store ptr null, ptr %3, align 8
  store i32 1, ptr %8, align 4
  br label %41

28:                                               ; preds = %14
  %29 = load ptr, ptr %4, align 8, !tbaa !8
  %30 = load ptr, ptr %6, align 8, !tbaa !29
  %31 = load ptr, ptr %5, align 8, !tbaa !8
  %32 = call noundef ptr @_ZL24ucnv_data_unFlattenCloneP18UConverterLoadArgsP11UDataMemoryP10UErrorCode(ptr noundef %29, ptr noundef %30, ptr noundef %31)
  store ptr %32, ptr %7, align 8, !tbaa !18
  %33 = load ptr, ptr %5, align 8, !tbaa !8
  %34 = load i32, ptr %33, align 4, !tbaa !9
  %35 = call noundef signext i8 @_ZL9U_FAILURE10UErrorCode(i32 noundef %34)
  %36 = icmp ne i8 %35, 0
  br i1 %36, label %37, label %39

37:                                               ; preds = %28
  %38 = load ptr, ptr %6, align 8, !tbaa !29
  call void @udata_close_77(ptr noundef %38)
  store ptr null, ptr %3, align 8
  store i32 1, ptr %8, align 4
  br label %41

39:                                               ; preds = %28
  %40 = load ptr, ptr %7, align 8, !tbaa !18
  store ptr %40, ptr %3, align 8
  store i32 1, ptr %8, align 4
  br label %41

41:                                               ; preds = %39, %37, %27, %13
  call void @llvm.lifetime.end.p0(i64 8, ptr %7) #12
  call void @llvm.lifetime.end.p0(i64 8, ptr %6) #12
  %42 = load ptr, ptr %3, align 8
  ret ptr %42
}