; Function Attrs: mustprogress uwtable
define internal fastcc noundef ptr @_ZL23createConverterFromFileP18UConverterLoadArgsP10UErrorCode(ptr noundef %0, ptr noundef %1) unnamed_addr #0 {
  %3 = load i32, ptr %1, align 4, !tbaa !13
  %4 = icmp slt i32 %3, 1
  br i1 %4, label %5, label %_ZL24ucnv_data_unFlattenCloneP18UConverterLoadArgsP11UDataMemoryP10UErrorCode.exit.thread15

5:                                                ; preds = %2
  %6 = getelementptr inbounds nuw i8, ptr %0, i64 16
  %7 = load ptr, ptr %6, align 8, !tbaa !15
  %8 = getelementptr inbounds nuw i8, ptr %0, i64 24
  %9 = load ptr, ptr %8, align 8, !tbaa !20
  %10 = tail call ptr @udata_openChoice_77(ptr noundef %7, ptr noundef nonnull @_ZL9DATA_TYPE, ptr noundef %9, ptr noundef nonnull @_ZL15isCnvAcceptablePvPKcS1_PK9UDataInfo, ptr noundef null, ptr noundef nonnull %1)
  %11 = load i32, ptr %1, align 4, !tbaa !13
  %12 = icmp slt i32 %11, 1
  br i1 %12, label %13, label %_ZL24ucnv_data_unFlattenCloneP18UConverterLoadArgsP11UDataMemoryP10UErrorCode.exit.thread15

13:                                               ; preds = %5
  %14 = tail call ptr @udata_getMemory_77(ptr noundef %10)
  %15 = getelementptr inbounds nuw i8, ptr %14, i64 69
  %16 = load i8, ptr %15, align 1, !tbaa !31
  %17 = load i32, ptr %1, align 4, !tbaa !13
  %18 = icmp slt i32 %17, 1
  br i1 %18, label %19, label %_ZL24ucnv_data_unFlattenCloneP18UConverterLoadArgsP11UDataMemoryP10UErrorCode.exit.thread

19:                                               ; preds = %13
  %20 = sext i8 %16 to i32
  %21 = and i32 %20, 65534
  %22 = icmp samesign ugt i32 %21, 33
  br i1 %22, label %_ZL24ucnv_data_unFlattenCloneP18UConverterLoadArgsP11UDataMemoryP10UErrorCode.exit.thread.sink.split, label %23

23:                                               ; preds = %19
  %24 = sext i8 %16 to i64
  %25 = getelementptr inbounds [34 x ptr], ptr @_ZL13converterData, i64 0, i64 %24
  %26 = load ptr, ptr %25, align 8, !tbaa !33
  %27 = shl nuw i64 1, %24
  %28 = and i64 %27, 515
  %.not32.i = icmp eq i64 %28, 0
  br i1 %.not32.i, label %29, label %_ZL24ucnv_data_unFlattenCloneP18UConverterLoadArgsP11UDataMemoryP10UErrorCode.exit.thread.sink.split

29:                                               ; preds = %23
  %30 = getelementptr inbounds nuw i8, ptr %26, i64 25
  %31 = load i8, ptr %30, align 1, !tbaa !34
  %.not33.i = icmp eq i8 %31, 0
  br i1 %.not33.i, label %_ZL24ucnv_data_unFlattenCloneP18UConverterLoadArgsP11UDataMemoryP10UErrorCode.exit.thread.sink.split, label %32

32:                                               ; preds = %29
  %33 = getelementptr inbounds nuw i8, ptr %26, i64 4
  %34 = load i32, ptr %33, align 4, !tbaa !22
  %.not34.i = icmp eq i32 %34, 1
  br i1 %.not34.i, label %35, label %_ZL24ucnv_data_unFlattenCloneP18UConverterLoadArgsP11UDataMemoryP10UErrorCode.exit.thread.sink.split

35:                                               ; preds = %32
  %36 = load i32, ptr %14, align 4, !tbaa !35
  %.not35.i = icmp eq i32 %36, 100
  br i1 %.not35.i, label %37, label %_ZL24ucnv_data_unFlattenCloneP18UConverterLoadArgsP11UDataMemoryP10UErrorCode.exit.thread.sink.split

37:                                               ; preds = %35
  %38 = tail call noalias dereferenceable_or_null(296) ptr @uprv_malloc_77(i64 noundef 296) #10
  %39 = icmp eq ptr %38, null
  br i1 %39, label %_ZL24ucnv_data_unFlattenCloneP18UConverterLoadArgsP11UDataMemoryP10UErrorCode.exit.thread.sink.split, label %40

40:                                               ; preds = %37
  tail call void @llvm.memcpy.p0.p0.i64(ptr noundef nonnull align 8 dereferenceable(296) %38, ptr noundef nonnull align 8 dereferenceable(296) %26, i64 296, i1 false)
  %41 = getelementptr inbounds nuw i8, ptr %38, i64 16
  store ptr %14, ptr %41, align 8, !tbaa !36
  %42 = getelementptr inbounds nuw i8, ptr %38, i64 24
  store i8 0, ptr %42, align 8, !tbaa !37
  %43 = getelementptr inbounds nuw i8, ptr %38, i64 8
  store ptr %10, ptr %43, align 8, !tbaa !38
  %44 = getelementptr inbounds nuw i8, ptr %38, i64 32
  %45 = load ptr, ptr %44, align 8, !tbaa !39
  %46 = getelementptr inbounds nuw i8, ptr %45, i64 8
  %47 = load ptr, ptr %46, align 8, !tbaa !40
  %.not36.i = icmp eq ptr %47, null
  br i1 %.not36.i, label %_ZL24ucnv_data_unFlattenCloneP18UConverterLoadArgsP11UDataMemoryP10UErrorCode.exit, label %48

48:                                               ; preds = %40
  %49 = load i32, ptr %14, align 4, !tbaa !35
  %50 = zext i32 %49 to i64
  %51 = getelementptr inbounds nuw i8, ptr %14, i64 %50
  tail call void %47(ptr noundef nonnull %38, ptr noundef nonnull %0, ptr noundef nonnull %51, ptr noundef nonnull %1)
  %52 = load i32, ptr %1, align 4, !tbaa !13
  %53 = icmp slt i32 %52, 1
  br i1 %53, label %_ZL24ucnv_data_unFlattenCloneP18UConverterLoadArgsP11UDataMemoryP10UErrorCode.exit.thread15, label %54

54:                                               ; preds = %48
  tail call void @uprv_free_77(ptr noundef nonnull %38)
  br label %_ZL24ucnv_data_unFlattenCloneP18UConverterLoadArgsP11UDataMemoryP10UErrorCode.exit

_ZL24ucnv_data_unFlattenCloneP18UConverterLoadArgsP11UDataMemoryP10UErrorCode.exit: ; preds = %40, %54
  %.0.i.ph = phi ptr [ %38, %40 ], [ null, %54 ]
  %.pr = load i32, ptr %1, align 4, !tbaa !13
  %55 = icmp slt i32 %.pr, 1
  br i1 %55, label %_ZL24ucnv_data_unFlattenCloneP18UConverterLoadArgsP11UDataMemoryP10UErrorCode.exit.thread15, label %_ZL24ucnv_data_unFlattenCloneP18UConverterLoadArgsP11UDataMemoryP10UErrorCode.exit.thread

_ZL24ucnv_data_unFlattenCloneP18UConverterLoadArgsP11UDataMemoryP10UErrorCode.exit.thread.sink.split: ; preds = %37, %19, %23, %29, %32, %35
  %.sink = phi i32 [ 13, %35 ], [ 13, %32 ], [ 13, %29 ], [ 13, %23 ], [ 13, %19 ], [ 7, %37 ]
  store i32 %.sink, ptr %1, align 4, !tbaa !13
  br label %_ZL24ucnv_data_unFlattenCloneP18UConverterLoadArgsP11UDataMemoryP10UErrorCode.exit.thread

_ZL24ucnv_data_unFlattenCloneP18UConverterLoadArgsP11UDataMemoryP10UErrorCode.exit.thread: ; preds = %_ZL24ucnv_data_unFlattenCloneP18UConverterLoadArgsP11UDataMemoryP10UErrorCode.exit.thread.sink.split, %13, %_ZL24ucnv_data_unFlattenCloneP18UConverterLoadArgsP11UDataMemoryP10UErrorCode.exit
  tail call void @udata_close_77(ptr noundef %10)
  br label %_ZL24ucnv_data_unFlattenCloneP18UConverterLoadArgsP11UDataMemoryP10UErrorCode.exit.thread15

_ZL24ucnv_data_unFlattenCloneP18UConverterLoadArgsP11UDataMemoryP10UErrorCode.exit.thread15: ; preds = %48, %_ZL24ucnv_data_unFlattenCloneP18UConverterLoadArgsP11UDataMemoryP10UErrorCode.exit, %5, %2, %_ZL24ucnv_data_unFlattenCloneP18UConverterLoadArgsP11UDataMemoryP10UErrorCode.exit.thread
  %.0 = phi ptr [ null, %_ZL24ucnv_data_unFlattenCloneP18UConverterLoadArgsP11UDataMemoryP10UErrorCode.exit.thread ], [ null, %2 ], [ null, %5 ], [ %.0.i.ph, %_ZL24ucnv_data_unFlattenCloneP18UConverterLoadArgsP11UDataMemoryP10UErrorCode.exit ], [ %38, %48 ]
  ret ptr %.0
}